target datalayout = "e-m:e-p270:32:32-p271:32:32-p272:64:64-i64:64-i128:128-f80:128-n8:16:32:64-S128"
target triple = "x86_64-pc-linux-gnu"

%struct.dt_action_def_t = type { ptr, ptr, ptr, ptr, i32 }

@_current_notebook = internal global ptr null, align 8
@_current_action_def = internal global ptr null, align 8
@.str.172 = private unnamed_addr constant [5 x i8] c"tabs\00", align 1

; Function Attrs: nounwind uwtable
define ptr @dt_ui_notebook_new(ptr noundef %0) #0 {
  %2 = alloca ptr, align 8
  store ptr %0, ptr %2, align 8, !tbaa !285
  %3 = call ptr @gtk_notebook_new()
  %4 = call i64 @gtk_notebook_get_type() #16
  %5 = call ptr @g_type_check_instance_cast(ptr noundef %3, i64 noundef %4)
  store ptr %5, ptr @_current_notebook, align 8, !tbaa !287
  %6 = load ptr, ptr %2, align 8, !tbaa !285
  %7 = getelementptr inbounds nuw %struct.dt_action_def_t, ptr %6, i32 0, i32 0
  %8 = load ptr, ptr %7, align 8, !tbaa !289
  %9 = icmp ne ptr %8, null
  br i1 %9, label %16, label %10

10:                                               ; preds = %1
  %11 = load ptr, ptr %2, align 8, !tbaa !285
  store ptr %11, ptr @_current_action_def, align 8, !tbaa !285
  %12 = load ptr, ptr %2, align 8, !tbaa !285
  %13 = getelementptr inbounds nuw %struct.dt_action_def_t, ptr %12, i32 0, i32 0
  store ptr @.str.172, ptr %13, align 8, !tbaa !289
  %14 = load ptr, ptr %2, align 8, !tbaa !285
  %15 = getelementptr inbounds nuw %struct.dt_action_def_t, ptr %14, i32 0, i32 1
  store ptr @_action_process_tabs, ptr %15, align 8, !tbaa !293
  br label %16

16:                                               ; preds = %10, %1
  %17 = load ptr, ptr @_current_notebook, align 8, !tbaa !287
  %18 = call i64 @gtk_widget_get_type() #16
  %19 = call ptr @g_type_check_instance_cast(ptr noundef %17, i64 noundef %18)
  call void @gtk_drag_dest_unset(ptr noundef %19)
  %20 = load ptr, ptr @_current_notebook, align 8, !tbaa !287
  ret ptr %20
}