; Function Attrs: nounwind uwtable
define ptr @dt_ui_notebook_new(ptr noundef %0) local_unnamed_addr #0 {
  %2 = tail call ptr @gtk_notebook_new() #18
  %3 = tail call i64 @gtk_notebook_get_type() #19
  %4 = tail call ptr @g_type_check_instance_cast(ptr noundef %2, i64 noundef %3) #18
  store ptr %4, ptr @_current_notebook, align 8, !tbaa !219
  %5 = load ptr, ptr %0, align 8, !tbaa !221
  %.not = icmp eq ptr %5, null
  br i1 %.not, label %6, label %8

6:                                                ; preds = %1
  store ptr %0, ptr @_current_action_def, align 8, !tbaa !225
  store ptr @.str.172, ptr %0, align 8, !tbaa !221
  %7 = getelementptr inbounds nuw i8, ptr %0, i64 8
  store ptr @_action_process_tabs, ptr %7, align 8, !tbaa !227
  br label %8

8:                                                ; preds = %6, %1
  %9 = tail call i64 @gtk_widget_get_type() #19
  %10 = tail call ptr @g_type_check_instance_cast(ptr noundef %4, i64 noundef %9) #18
  tail call void @gtk_drag_dest_unset(ptr noundef %10) #18
  %11 = load ptr, ptr @_current_notebook, align 8, !tbaa !219
  ret ptr %11
}